; Function Attrs: nounwind uwtable
define nonnull ptr @l_Std_Time_HourMarker_ofNat___boxed(ptr noundef %0) local_unnamed_addr #1 {
  %2 = ptrtoint ptr %0 to i64
  %3 = and i64 %2, 1
  %.not.i3 = icmp eq i64 %3, 0
  br i1 %.not.i3, label %5, label %l_Std_Time_HourMarker_ofNat.exit.thread, !prof !15

l_Std_Time_HourMarker_ofNat.exit.thread:          ; preds = %1
  %4 = icmp ne ptr %0, inttoptr (i64 1 to ptr)
  br label %lean_dec.exit

5:                                                ; preds = %1
  %6 = tail call zeroext i1 @lean_nat_big_eq(ptr noundef %0, ptr noundef nonnull inttoptr (i64 1 to ptr)) #7
  %7 = xor i1 %6, true
  %8 = load i32, ptr %0, align 4, !tbaa !4
  %9 = icmp sgt i32 %8, 1
  br i1 %9, label %10, label %12, !prof !9

10:                                               ; preds = %5
  %11 = add nsw i32 %8, -1
  store i32 %11, ptr %0, align 4, !tbaa !4
  br label %lean_dec.exit

12:                                               ; preds = %5
  %.not.i = icmp eq i32 %8, 0
  br i1 %.not.i, label %lean_dec.exit, label %13

13:                                               ; preds = %12
  tail call void @lean_dec_ref_cold(ptr noundef nonnull %0) #7
  br label %lean_dec.exit

lean_dec.exit:                                    ; preds = %13, %12, %10, %l_Std_Time_HourMarker_ofNat.exit.thread
  %..i6.in = phi i1 [ %4, %l_Std_Time_HourMarker_ofNat.exit.thread ], [ %7, %10 ], [ %7, %12 ], [ %7, %13 ]
  %14 = select i1 %..i6.in, ptr inttoptr (i64 3 to ptr), ptr inttoptr (i64 1 to ptr)
  ret ptr %14
}